#include <math.h>
#include <stdio.h>
#include <stdlib.h>
#include <string.h>

int main()
{
	int n,i,j,e;
	char jj1[150][256]={0},jj2[150][256]={0};
	scanf("%d",&n);
	for(i=0;i<n;i++)
	{
		scanf("%s",jj1[0]);
//	}
//	for(i=0;i<n;i++)
//	{
		for(j=0;j<strlen(jj1[0]);j++)
		{
			switch(jj1[0][j])
			{
			case 'A':
				jj2[0][j]='T';
				break;
			case 'T':
				jj2[0][j]='A';
				break;
			case 'C':
				jj2[0][j]='G';
				break;
			case 'G':
				jj2[0][j]='C';
				break;
			default:
				break;
			}
		}
		jj2[0][j] = '\0';
//	}
//	for(i=0;i<n;i++)
//	{
		printf("%s\n",jj2[0]);
	}
	return 0;
}